target datalayout = "e-m:e-p270:32:32-p271:32:32-p272:64:64-i64:64-i128:128-f80:128-n8:16:32:64-S128"
target triple = "x86_64-pc-linux-gnu"

; Function Attrs: nounwind uwtable
define dso_local ptr @findsubquery(ptr noundef %0, ptr noundef %1, ptr noundef %2, ptr noundef %3) #0 {
  %5 = alloca ptr, align 8
  %6 = alloca ptr, align 8
  %7 = alloca ptr, align 8
  %8 = alloca ptr, align 8
  %9 = alloca i8, align 1
  store ptr %0, ptr %5, align 8
  store ptr %1, ptr %6, align 8
  store ptr %2, ptr %7, align 8
  store ptr %3, ptr %8, align 8
  call void @llvm.lifetime.start.p0(i64 1, ptr %9) #6
  store i8 0, ptr %9, align 1
  %10 = load ptr, ptr %5, align 8
  %11 = load ptr, ptr %6, align 8
  %12 = load ptr, ptr %7, align 8
  %13 = call ptr @dofindsubquery(ptr noundef %10, ptr noundef %11, ptr noundef %12, ptr noundef %9)
  store ptr %13, ptr %5, align 8
  %14 = load ptr, ptr %8, align 8
  %15 = icmp ne ptr %14, null
  br i1 %15, label %16, label %21

16:                                               ; preds = %4
  %17 = load i8, ptr %9, align 1, !range !4, !noundef !5
  %18 = trunc i8 %17 to i1
  %19 = load ptr, ptr %8, align 8
  %20 = zext i1 %18 to i8
  store i8 %20, ptr %19, align 1
  br label %21

21:                                               ; preds = %16, %4
  %22 = load ptr, ptr %5, align 8
  call void @llvm.lifetime.end.p0(i64 1, ptr %9) #6
  ret ptr %22
}