; Function Attrs: nounwind uwtable
define dso_local ptr @findsubquery(ptr noundef %0, ptr noundef %1, ptr noundef %2, ptr noundef writeonly captures(address_is_null) %3) local_unnamed_addr #0 {
  %5 = alloca i8, align 1
  call void @llvm.lifetime.start.p0(i64 1, ptr nonnull %5) #5
  store i8 0, ptr %5, align 1
  %6 = call fastcc ptr @dofindsubquery(ptr noundef %0, ptr noundef %1, ptr noundef %2, ptr noundef %5)
  %.not = icmp eq ptr %3, null
  br i1 %.not, label %9, label %7

7:                                                ; preds = %4
  %8 = load i8, ptr %5, align 1, !range !4, !noundef !5
  store i8 %8, ptr %3, align 1
  br label %9

9:                                                ; preds = %7, %4
  call void @llvm.lifetime.end.p0(i64 1, ptr nonnull %5) #5
  ret ptr %6
}